target datalayout = "e-m:e-p270:32:32-p271:32:32-p272:64:64-i64:64-i128:128-f80:128-n8:16:32:64-S128"
target triple = "x86_64-pc-linux-gnu"

%"struct.duckdb_zstd::ZSTD_customMem" = type { ptr, ptr, ptr }
%"struct.duckdb_zstd::ZSTDMT_bufferPool_s" = type { i32, i64, i32, i32, %"struct.duckdb_zstd::ZSTD_customMem", ptr }

; Function Attrs: inlinehint mustprogress uwtable
define internal void @_ZN11duckdb_zstdL15ZSTD_customFreeEPvNS_14ZSTD_customMemE(ptr noundef %0, ptr noundef byval(%"struct.duckdb_zstd::ZSTD_customMem") align 8 %1) #4 {
  %3 = alloca ptr, align 8
  store ptr %0, ptr %3, align 8, !tbaa !42
  %4 = load ptr, ptr %3, align 8, !tbaa !42
  %5 = icmp ne ptr %4, null
  br i1 %5, label %6, label %19

6:                                                ; preds = %2
  %7 = getelementptr inbounds nuw %"struct.duckdb_zstd::ZSTD_customMem", ptr %1, i32 0, i32 1
  %8 = load ptr, ptr %7, align 8, !tbaa !74
  %9 = icmp ne ptr %8, null
  br i1 %9, label %10, label %16

10:                                               ; preds = %6
  %11 = getelementptr inbounds nuw %"struct.duckdb_zstd::ZSTD_customMem", ptr %1, i32 0, i32 1
  %12 = load ptr, ptr %11, align 8, !tbaa !74
  %13 = getelementptr inbounds nuw %"struct.duckdb_zstd::ZSTD_customMem", ptr %1, i32 0, i32 2
  %14 = load ptr, ptr %13, align 8, !tbaa !75
  %15 = load ptr, ptr %3, align 8, !tbaa !42
  call void %12(ptr noundef %14, ptr noundef %15)
  br label %18

16:                                               ; preds = %6
  %17 = load ptr, ptr %3, align 8, !tbaa !42
  call void @free(ptr noundef %17) #12
  br label %18

18:                                               ; preds = %16, %10
  br label %19

19:                                               ; preds = %18, %2
  ret void
}

; Function Attrs: inlinehint mustprogress uwtable
define internal noundef ptr @_ZN11duckdb_zstdL17ZSTD_customCallocEmNS_14ZSTD_customMemE(i64 noundef %0, ptr noundef byval(%"struct.duckdb_zstd::ZSTD_customMem") align 8 %1) #4 {
  %3 = alloca ptr, align 8
  %4 = alloca i64, align 8
  %5 = alloca ptr, align 8
  store i64 %0, ptr %4, align 8, !tbaa !52
  %6 = getelementptr inbounds nuw %"struct.duckdb_zstd::ZSTD_customMem", ptr %1, i32 0, i32 0
  %7 = load ptr, ptr %6, align 8, !tbaa !137
  %8 = icmp ne ptr %7, null
  br i1 %8, label %9, label %19

9:                                                ; preds = %2
  call void @llvm.lifetime.start.p0(i64 8, ptr %5) #12
  %10 = getelementptr inbounds nuw %"struct.duckdb_zstd::ZSTD_customMem", ptr %1, i32 0, i32 0
  %11 = load ptr, ptr %10, align 8, !tbaa !137
  %12 = getelementptr inbounds nuw %"struct.duckdb_zstd::ZSTD_customMem", ptr %1, i32 0, i32 2
  %13 = load ptr, ptr %12, align 8, !tbaa !75
  %14 = load i64, ptr %4, align 8, !tbaa !52
  %15 = call noundef ptr %11(ptr noundef %13, i64 noundef %14)
  store ptr %15, ptr %5, align 8, !tbaa !42
  %16 = load ptr, ptr %5, align 8, !tbaa !42
  %17 = load i64, ptr %4, align 8, !tbaa !52
  call void @llvm.memset.p0.i64(ptr align 1 %16, i8 0, i64 %17, i1 false)
  %18 = load ptr, ptr %5, align 8, !tbaa !42
  store ptr %18, ptr %3, align 8
  call void @llvm.lifetime.end.p0(i64 8, ptr %5) #12
  br label %22

19:                                               ; preds = %2
  %20 = load i64, ptr %4, align 8, !tbaa !52
  %21 = call noalias ptr @calloc(i64 noundef 1, i64 noundef %20) #14
  store ptr %21, ptr %3, align 8
  br label %22

22:                                               ; preds = %19, %9
  %23 = load ptr, ptr %3, align 8
  ret ptr %23
}

; Function Attrs: mustprogress nounwind uwtable
define internal void @_ZN11duckdb_zstdL20ZSTDMT_setBufferSizeEPNS_19ZSTDMT_bufferPool_sEm(ptr noundef %0, i64 noundef %1) #0 {
  %3 = alloca ptr, align 8
  %4 = alloca i64, align 8
  store ptr %0, ptr %3, align 8, !tbaa !58
  store i64 %1, ptr %4, align 8, !tbaa !52
  br label %5

5:                                                ; preds = %2
  br label %6

6:                                                ; preds = %5
  %7 = load i64, ptr %4, align 8, !tbaa !52
  %8 = load ptr, ptr %3, align 8, !tbaa !58
  %9 = getelementptr inbounds nuw %"struct.duckdb_zstd::ZSTDMT_bufferPool_s", ptr %8, i32 0, i32 1
  store i64 %7, ptr %9, align 8, !tbaa !136
  ret void
}

; Function Attrs: mustprogress uwtable
define internal noundef ptr @_ZN11duckdb_zstdL23ZSTDMT_createBufferPoolEjNS_14ZSTD_customMemE(i32 noundef %0, ptr noundef byval(%"struct.duckdb_zstd::ZSTD_customMem") align 8 %1) #1 {
  %3 = alloca ptr, align 8
  %4 = alloca i32, align 4
  %5 = alloca ptr, align 8
  %6 = alloca %"struct.duckdb_zstd::ZSTD_customMem", align 8
  %7 = alloca i32, align 4
  %8 = alloca %"struct.duckdb_zstd::ZSTD_customMem", align 8
  %9 = alloca %"struct.duckdb_zstd::ZSTD_customMem", align 8
  store i32 %0, ptr %4, align 4, !tbaa !3
  call void @llvm.lifetime.start.p0(i64 8, ptr %5) #12
  call void @llvm.memcpy.p0.p0.i64(ptr align 8 %6, ptr align 8 %1, i64 24, i1 false), !tbaa.struct !41
  %10 = call noundef ptr @_ZN11duckdb_zstdL17ZSTD_customCallocEmNS_14ZSTD_customMemE(i64 noundef 56, ptr noundef byval(%"struct.duckdb_zstd::ZSTD_customMem") align 8 %6)
  store ptr %10, ptr %5, align 8, !tbaa !58
  %11 = load ptr, ptr %5, align 8, !tbaa !58
  %12 = icmp eq ptr %11, null
  br i1 %12, label %13, label %14

13:                                               ; preds = %2
  store ptr null, ptr %3, align 8
  store i32 1, ptr %7, align 4
  br label %41

14:                                               ; preds = %2
  br i1 false, label %15, label %17

15:                                               ; preds = %14
  %16 = load ptr, ptr %5, align 8, !tbaa !58
  call void @llvm.memcpy.p0.p0.i64(ptr align 8 %8, ptr align 8 %1, i64 24, i1 false), !tbaa.struct !41
  call void @_ZN11duckdb_zstdL15ZSTD_customFreeEPvNS_14ZSTD_customMemE(ptr noundef %16, ptr noundef byval(%"struct.duckdb_zstd::ZSTD_customMem") align 8 %8)
  store ptr null, ptr %3, align 8
  store i32 1, ptr %7, align 4
  br label %41

17:                                               ; preds = %14
  %18 = load i32, ptr %4, align 4, !tbaa !3
  %19 = zext i32 %18 to i64
  %20 = mul i64 %19, 16
  call void @llvm.memcpy.p0.p0.i64(ptr align 8 %9, ptr align 8 %1, i64 24, i1 false), !tbaa.struct !41
  %21 = call noundef ptr @_ZN11duckdb_zstdL17ZSTD_customCallocEmNS_14ZSTD_customMemE(i64 noundef %20, ptr noundef byval(%"struct.duckdb_zstd::ZSTD_customMem") align 8 %9)
  %22 = load ptr, ptr %5, align 8, !tbaa !58
  %23 = getelementptr inbounds nuw %"struct.duckdb_zstd::ZSTDMT_bufferPool_s", ptr %22, i32 0, i32 5
  store ptr %21, ptr %23, align 8, !tbaa !59
  %24 = load ptr, ptr %5, align 8, !tbaa !58
  %25 = getelementptr inbounds nuw %"struct.duckdb_zstd::ZSTDMT_bufferPool_s", ptr %24, i32 0, i32 5
  %26 = load ptr, ptr %25, align 8, !tbaa !59
  %27 = icmp eq ptr %26, null
  br i1 %27, label %28, label %30

28:                                               ; preds = %17
  %29 = load ptr, ptr %5, align 8, !tbaa !58
  call void @_ZN11duckdb_zstdL21ZSTDMT_freeBufferPoolEPNS_19ZSTDMT_bufferPool_sE(ptr noundef %29)
  store ptr null, ptr %3, align 8
  store i32 1, ptr %7, align 4
  br label %41

30:                                               ; preds = %17
  %31 = load ptr, ptr %5, align 8, !tbaa !58
  %32 = getelementptr inbounds nuw %"struct.duckdb_zstd::ZSTDMT_bufferPool_s", ptr %31, i32 0, i32 1
  store i64 65536, ptr %32, align 8, !tbaa !136
  %33 = load i32, ptr %4, align 4, !tbaa !3
  %34 = load ptr, ptr %5, align 8, !tbaa !58
  %35 = getelementptr inbounds nuw %"struct.duckdb_zstd::ZSTDMT_bufferPool_s", ptr %34, i32 0, i32 2
  store i32 %33, ptr %35, align 8, !tbaa !62
  %36 = load ptr, ptr %5, align 8, !tbaa !58
  %37 = getelementptr inbounds nuw %"struct.duckdb_zstd::ZSTDMT_bufferPool_s", ptr %36, i32 0, i32 3
  store i32 0, ptr %37, align 4, !tbaa !189
  %38 = load ptr, ptr %5, align 8, !tbaa !58
  %39 = getelementptr inbounds nuw %"struct.duckdb_zstd::ZSTDMT_bufferPool_s", ptr %38, i32 0, i32 4
  call void @llvm.memcpy.p0.p0.i64(ptr align 8 %39, ptr align 8 %1, i64 24, i1 false), !tbaa.struct !41
  %40 = load ptr, ptr %5, align 8, !tbaa !58
  store ptr %40, ptr %3, align 8
  store i32 1, ptr %7, align 4
  br label %41

41:                                               ; preds = %30, %28, %15, %13
  call void @llvm.lifetime.end.p0(i64 8, ptr %5) #12
  %42 = load ptr, ptr %3, align 8
  ret ptr %42
}

; Function Attrs: mustprogress uwtable
define internal noundef ptr @_ZN11duckdb_zstdL23ZSTDMT_expandBufferPoolEPNS_19ZSTDMT_bufferPool_sEj(ptr noundef %0, i32 noundef %1) #1 {
  %3 = alloca ptr, align 8
  %4 = alloca ptr, align 8
  %5 = alloca i32, align 4
  %6 = alloca %"struct.duckdb_zstd::ZSTD_customMem", align 8
  %7 = alloca i64, align 8
  %8 = alloca ptr, align 8
  %9 = alloca %"struct.duckdb_zstd::ZSTD_customMem", align 8
  %10 = alloca i32, align 4
  store ptr %0, ptr %4, align 8, !tbaa !58
  store i32 %1, ptr %5, align 4, !tbaa !3
  %11 = load ptr, ptr %4, align 8, !tbaa !58
  %12 = icmp eq ptr %11, null
  br i1 %12, label %13, label %14

13:                                               ; preds = %2
  store ptr null, ptr %3, align 8
  br label %40

14:                                               ; preds = %2
  %15 = load ptr, ptr %4, align 8, !tbaa !58
  %16 = getelementptr inbounds nuw %"struct.duckdb_zstd::ZSTDMT_bufferPool_s", ptr %15, i32 0, i32 2
  %17 = load i32, ptr %16, align 8, !tbaa !62
  %18 = load i32, ptr %5, align 4, !tbaa !3
  %19 = icmp uge i32 %17, %18
  br i1 %19, label %20, label %22

20:                                               ; preds = %14
  %21 = load ptr, ptr %4, align 8, !tbaa !58
  store ptr %21, ptr %3, align 8
  br label %40

22:                                               ; preds = %14
  call void @llvm.lifetime.start.p0(i64 24, ptr %6) #12
  %23 = load ptr, ptr %4, align 8, !tbaa !58
  %24 = getelementptr inbounds nuw %"struct.duckdb_zstd::ZSTDMT_bufferPool_s", ptr %23, i32 0, i32 4
  call void @llvm.memcpy.p0.p0.i64(ptr align 8 %6, ptr align 8 %24, i64 24, i1 false), !tbaa.struct !41
  call void @llvm.lifetime.start.p0(i64 8, ptr %7) #12
  %25 = load ptr, ptr %4, align 8, !tbaa !58
  %26 = getelementptr inbounds nuw %"struct.duckdb_zstd::ZSTDMT_bufferPool_s", ptr %25, i32 0, i32 1
  %27 = load i64, ptr %26, align 8, !tbaa !136
  store i64 %27, ptr %7, align 8, !tbaa !52
  call void @llvm.lifetime.start.p0(i64 8, ptr %8) #12
  %28 = load ptr, ptr %4, align 8, !tbaa !58
  call void @_ZN11duckdb_zstdL21ZSTDMT_freeBufferPoolEPNS_19ZSTDMT_bufferPool_sE(ptr noundef %28)
  %29 = load i32, ptr %5, align 4, !tbaa !3
  call void @llvm.memcpy.p0.p0.i64(ptr align 8 %9, ptr align 8 %6, i64 24, i1 false), !tbaa.struct !41
  %30 = call noundef ptr @_ZN11duckdb_zstdL23ZSTDMT_createBufferPoolEjNS_14ZSTD_customMemE(i32 noundef %29, ptr noundef byval(%"struct.duckdb_zstd::ZSTD_customMem") align 8 %9)
  store ptr %30, ptr %8, align 8, !tbaa !58
  %31 = load ptr, ptr %8, align 8, !tbaa !58
  %32 = icmp eq ptr %31, null
  br i1 %32, label %33, label %35

33:                                               ; preds = %22
  %34 = load ptr, ptr %8, align 8, !tbaa !58
  store ptr %34, ptr %3, align 8
  store i32 1, ptr %10, align 4
  br label %39

35:                                               ; preds = %22
  %36 = load ptr, ptr %8, align 8, !tbaa !58
  %37 = load i64, ptr %7, align 8, !tbaa !52
  call void @_ZN11duckdb_zstdL20ZSTDMT_setBufferSizeEPNS_19ZSTDMT_bufferPool_sEm(ptr noundef %36, i64 noundef %37)
  %38 = load ptr, ptr %8, align 8, !tbaa !58
  store ptr %38, ptr %3, align 8
  store i32 1, ptr %10, align 4
  br label %39

39:                                               ; preds = %35, %33
  call void @llvm.lifetime.end.p0(i64 8, ptr %8) #12
  call void @llvm.lifetime.end.p0(i64 8, ptr %7) #12
  call void @llvm.lifetime.end.p0(i64 24, ptr %6) #12
  br label %40

40:                                               ; preds = %39, %20, %13
  %41 = load ptr, ptr %3, align 8
  ret ptr %41
}