; Function Attrs: mustprogress uwtable
define internal fastcc noundef ptr @_ZN11duckdb_zstdL23ZSTDMT_expandBufferPoolEPNS_19ZSTDMT_bufferPool_sEj(ptr noundef %0, i32 noundef %1) unnamed_addr #1 {
  %3 = icmp eq ptr %0, null
  br i1 %3, label %_ZN11duckdb_zstdL23ZSTDMT_createBufferPoolEjNS_14ZSTD_customMemE.exit.thread, label %4

4:                                                ; preds = %2
  %5 = getelementptr inbounds nuw i8, ptr %0, i64 16
  %6 = load i32, ptr %5, align 8, !tbaa !45
  %.not = icmp ult i32 %6, %1
  br i1 %.not, label %7, label %_ZN11duckdb_zstdL23ZSTDMT_createBufferPoolEjNS_14ZSTD_customMemE.exit.thread

7:                                                ; preds = %4
  %8 = getelementptr inbounds nuw i8, ptr %0, i64 24
  %.sroa.023.0.copyload = load ptr, ptr %8, align 8, !tbaa !40
  %.sroa.4.0..sroa_idx = getelementptr inbounds nuw i8, ptr %0, i64 32
  %.sroa.4.0.copyload = load ptr, ptr %.sroa.4.0..sroa_idx, align 8, !tbaa !40
  %.sroa.524.0..sroa_idx = getelementptr inbounds nuw i8, ptr %0, i64 40
  %.sroa.524.0.copyload = load ptr, ptr %.sroa.524.0..sroa_idx, align 8, !tbaa !40
  %9 = getelementptr inbounds nuw i8, ptr %0, i64 8
  %10 = load i64, ptr %9, align 8, !tbaa !114
  tail call fastcc void @_ZN11duckdb_zstdL21ZSTDMT_freeBufferPoolEPNS_19ZSTDMT_bufferPool_sE(ptr noundef nonnull %0)
  %.not.i.i = icmp eq ptr %.sroa.023.0.copyload, null
  br i1 %.not.i.i, label %_ZN11duckdb_zstdL17ZSTD_customCallocEmNS_14ZSTD_customMemE.exit.i, label %13

_ZN11duckdb_zstdL17ZSTD_customCallocEmNS_14ZSTD_customMemE.exit.i: ; preds = %7
  %11 = tail call noalias dereferenceable_or_null(56) ptr @calloc(i64 noundef 1, i64 noundef 56) #17
  %12 = icmp eq ptr %11, null
  br i1 %12, label %_ZN11duckdb_zstdL23ZSTDMT_createBufferPoolEjNS_14ZSTD_customMemE.exit.thread, label %18

13:                                               ; preds = %7
  %14 = tail call noundef ptr %.sroa.023.0.copyload(ptr noundef %.sroa.524.0.copyload, i64 noundef 56)
  tail call void @llvm.memset.p0.i64(ptr noundef nonnull align 1 dereferenceable(56) %14, i8 0, i64 56, i1 false)
  %15 = zext i32 %1 to i64
  %16 = shl nuw nsw i64 %15, 4
  %17 = tail call noundef ptr %.sroa.023.0.copyload(ptr noundef %.sroa.524.0.copyload, i64 noundef range(i64 -17179869184, 1580547964561) %16)
  tail call void @llvm.memset.p0.i64(ptr align 1 %17, i8 0, i64 range(i64 -17179869184, 1580547964561) %16, i1 false)
  br label %_ZN11duckdb_zstdL17ZSTD_customCallocEmNS_14ZSTD_customMemE.exit17.i

18:                                               ; preds = %_ZN11duckdb_zstdL17ZSTD_customCallocEmNS_14ZSTD_customMemE.exit.i
  %19 = zext i32 %1 to i64
  %20 = shl nuw nsw i64 %19, 4
  %21 = tail call noalias ptr @calloc(i64 noundef 1, i64 noundef range(i64 -17179869184, 1580547964561) %20) #17
  br label %_ZN11duckdb_zstdL17ZSTD_customCallocEmNS_14ZSTD_customMemE.exit17.i

_ZN11duckdb_zstdL17ZSTD_customCallocEmNS_14ZSTD_customMemE.exit17.i: ; preds = %18, %13
  %.0.i2325.i = phi ptr [ %14, %13 ], [ %11, %18 ]
  %.0.i16.i = phi ptr [ %17, %13 ], [ %21, %18 ]
  %22 = getelementptr inbounds nuw i8, ptr %.0.i2325.i, i64 48
  store ptr %.0.i16.i, ptr %22, align 8, !tbaa !46
  %23 = icmp eq ptr %.0.i16.i, null
  br i1 %23, label %24, label %25

24:                                               ; preds = %_ZN11duckdb_zstdL17ZSTD_customCallocEmNS_14ZSTD_customMemE.exit17.i
  tail call fastcc void @_ZN11duckdb_zstdL21ZSTDMT_freeBufferPoolEPNS_19ZSTDMT_bufferPool_sE(ptr noundef nonnull %.0.i2325.i)
  br label %_ZN11duckdb_zstdL23ZSTDMT_createBufferPoolEjNS_14ZSTD_customMemE.exit.thread

25:                                               ; preds = %_ZN11duckdb_zstdL17ZSTD_customCallocEmNS_14ZSTD_customMemE.exit17.i
  %26 = getelementptr inbounds nuw i8, ptr %.0.i2325.i, i64 8
  %27 = getelementptr inbounds nuw i8, ptr %.0.i2325.i, i64 16
  store i32 %1, ptr %27, align 8, !tbaa !45
  %28 = getelementptr inbounds nuw i8, ptr %.0.i2325.i, i64 20
  store i32 0, ptr %28, align 4, !tbaa !42
  %29 = getelementptr inbounds nuw i8, ptr %.0.i2325.i, i64 24
  store ptr %.sroa.023.0.copyload, ptr %29, align 8, !tbaa !40
  %.sroa.5.0..sroa_idx = getelementptr inbounds nuw i8, ptr %.0.i2325.i, i64 32
  store ptr %.sroa.4.0.copyload, ptr %.sroa.5.0..sroa_idx, align 8, !tbaa !40
  %.sroa.519.0..sroa_idx = getelementptr inbounds nuw i8, ptr %.0.i2325.i, i64 40
  store ptr %.sroa.524.0.copyload, ptr %.sroa.519.0..sroa_idx, align 8, !tbaa !40
  store i64 %10, ptr %26, align 8, !tbaa !114
  br label %_ZN11duckdb_zstdL23ZSTDMT_createBufferPoolEjNS_14ZSTD_customMemE.exit.thread

_ZN11duckdb_zstdL23ZSTDMT_createBufferPoolEjNS_14ZSTD_customMemE.exit.thread: ; preds = %_ZN11duckdb_zstdL17ZSTD_customCallocEmNS_14ZSTD_customMemE.exit.i, %24, %25, %4, %2
  %.0 = phi ptr [ null, %2 ], [ %0, %4 ], [ %.0.i2325.i, %25 ], [ null, %24 ], [ null, %_ZN11duckdb_zstdL17ZSTD_customCallocEmNS_14ZSTD_customMemE.exit.i ]
  ret ptr %.0
}